target datalayout = "e-m:e-p270:32:32-p271:32:32-p272:64:64-i64:64-i128:128-f80:128-n8:16:32:64-S128"
target triple = "x86_64-pc-linux-gnu"

%"class.__gnu_cxx::__normal_iterator.125" = type { ptr }
%"struct.spdlog::details::padding_info" = type <{ i64, i32, i8, i8, [2 x i8] }>

; Function Attrs: mustprogress nounwind uwtable
define linkonce_odr dso_local noundef nonnull align 8 dereferenceable(8) ptr @_ZNK9__gnu_cxx17__normal_iteratorIPKcNSt7__cxx1112basic_stringIcSt11char_traitsIcESaIcEEEE4baseEv(ptr noundef nonnull align 8 dereferenceable(8) %0) #0 comdat align 2 {
  %2 = alloca ptr, align 8
  store ptr %0, ptr %2, align 8, !tbaa !346
  %3 = load ptr, ptr %2, align 8
  %4 = getelementptr inbounds nuw %"class.__gnu_cxx::__normal_iterator.125", ptr %3, i32 0, i32 0
  ret ptr %4
}

; Function Attrs: mustprogress nounwind uwtable
define linkonce_odr dso_local void @_ZN6spdlog7details12padding_infoC2EmNS1_8pad_sideEb(ptr noundef nonnull align 8 dereferenceable(14) %0, i64 noundef %1, i32 noundef %2, i1 noundef zeroext %3) unnamed_addr #0 comdat align 2 {
  %5 = alloca ptr, align 8
  %6 = alloca i64, align 8
  %7 = alloca i32, align 4
  %8 = alloca i8, align 1
  store ptr %0, ptr %5, align 8, !tbaa !309
  store i64 %1, ptr %6, align 8, !tbaa !28
  store i32 %2, ptr %7, align 4, !tbaa !303
  %9 = zext i1 %3 to i8
  store i8 %9, ptr %8, align 1, !tbaa !36
  %10 = load ptr, ptr %5, align 8
  %11 = getelementptr inbounds nuw %"struct.spdlog::details::padding_info", ptr %10, i32 0, i32 0
  %12 = load i64, ptr %6, align 8, !tbaa !28
  store i64 %12, ptr %11, align 8, !tbaa !311
  %13 = getelementptr inbounds nuw %"struct.spdlog::details::padding_info", ptr %10, i32 0, i32 1
  %14 = load i32, ptr %7, align 4, !tbaa !303
  store i32 %14, ptr %13, align 8, !tbaa !313
  %15 = getelementptr inbounds nuw %"struct.spdlog::details::padding_info", ptr %10, i32 0, i32 2
  %16 = load i8, ptr %8, align 1, !tbaa !36, !range !38, !noundef !39
  %17 = trunc i8 %16 to i1
  %18 = zext i1 %17 to i8
  store i8 %18, ptr %15, align 4, !tbaa !314
  %19 = getelementptr inbounds nuw %"struct.spdlog::details::padding_info", ptr %10, i32 0, i32 3
  store i8 1, ptr %19, align 1, !tbaa !315
  ret void
}

; Function Attrs: inlinehint mustprogress nounwind uwtable
define linkonce_odr dso_local noundef nonnull align 8 dereferenceable(8) ptr @_ZSt3minImERKT_S2_S2_(ptr noundef nonnull align 8 dereferenceable(8) %0, ptr noundef nonnull align 8 dereferenceable(8) %1) #3 comdat {
  %3 = alloca ptr, align 8
  %4 = alloca ptr, align 8
  %5 = alloca ptr, align 8
  store ptr %0, ptr %4, align 8, !tbaa !97
  store ptr %1, ptr %5, align 8, !tbaa !97
  %6 = load ptr, ptr %5, align 8, !tbaa !97
  %7 = load i64, ptr %6, align 8, !tbaa !28
  %8 = load ptr, ptr %4, align 8, !tbaa !97
  %9 = load i64, ptr %8, align 8, !tbaa !28
  %10 = icmp ult i64 %7, %9
  br i1 %10, label %11, label %13

11:                                               ; preds = %2
  %12 = load ptr, ptr %5, align 8, !tbaa !97
  store ptr %12, ptr %3, align 8
  br label %15

13:                                               ; preds = %2
  %14 = load ptr, ptr %4, align 8, !tbaa !97
  store ptr %14, ptr %3, align 8
  br label %15

15:                                               ; preds = %13, %11
  %16 = load ptr, ptr %3, align 8
  ret ptr %16
}

; Function Attrs: inlinehint mustprogress nounwind uwtable
define linkonce_odr dso_local noundef zeroext i1 @_ZN9__gnu_cxxneIPKcNSt7__cxx1112basic_stringIcSt11char_traitsIcESaIcEEEEEbRKNS_17__normal_iteratorIT_T0_EESE_(ptr noundef nonnull align 8 dereferenceable(8) %0, ptr noundef nonnull align 8 dereferenceable(8) %1) #3 comdat {
  %3 = alloca ptr, align 8
  %4 = alloca ptr, align 8
  store ptr %0, ptr %3, align 8, !tbaa !346
  store ptr %1, ptr %4, align 8, !tbaa !346
  %5 = load ptr, ptr %3, align 8, !tbaa !346
  %6 = call noundef nonnull align 8 dereferenceable(8) ptr @_ZNK9__gnu_cxx17__normal_iteratorIPKcNSt7__cxx1112basic_stringIcSt11char_traitsIcESaIcEEEE4baseEv(ptr noundef nonnull align 8 dereferenceable(8) %5) #13
  %7 = load ptr, ptr %6, align 8, !tbaa !8
  %8 = load ptr, ptr %4, align 8, !tbaa !346
  %9 = call noundef nonnull align 8 dereferenceable(8) ptr @_ZNK9__gnu_cxx17__normal_iteratorIPKcNSt7__cxx1112basic_stringIcSt11char_traitsIcESaIcEEEE4baseEv(ptr noundef nonnull align 8 dereferenceable(8) %8) #13
  %10 = load ptr, ptr %9, align 8, !tbaa !8
  %11 = icmp ne ptr %7, %10
  ret i1 %11
}

; Function Attrs: mustprogress nounwind uwtable
define linkonce_odr dso_local noundef nonnull align 8 dereferenceable(8) ptr @_ZN9__gnu_cxx17__normal_iteratorIPKcNSt7__cxx1112basic_stringIcSt11char_traitsIcESaIcEEEEppEv(ptr noundef nonnull align 8 dereferenceable(8) %0) #0 comdat align 2 {
  %2 = alloca ptr, align 8
  store ptr %0, ptr %2, align 8, !tbaa !346
  %3 = load ptr, ptr %2, align 8
  %4 = getelementptr inbounds nuw %"class.__gnu_cxx::__normal_iterator.125", ptr %3, i32 0, i32 0
  %5 = load ptr, ptr %4, align 8, !tbaa !349
  %6 = getelementptr inbounds nuw i8, ptr %5, i32 1
  store ptr %6, ptr %4, align 8, !tbaa !349
  ret ptr %3
}

; Function Attrs: mustprogress nounwind uwtable
define linkonce_odr dso_local noundef nonnull align 1 dereferenceable(1) ptr @_ZNK9__gnu_cxx17__normal_iteratorIPKcNSt7__cxx1112basic_stringIcSt11char_traitsIcESaIcEEEEdeEv(ptr noundef nonnull align 8 dereferenceable(8) %0) #0 comdat align 2 {
  %2 = alloca ptr, align 8
  store ptr %0, ptr %2, align 8, !tbaa !346
  %3 = load ptr, ptr %2, align 8
  %4 = getelementptr inbounds nuw %"class.__gnu_cxx::__normal_iterator.125", ptr %3, i32 0, i32 0
  %5 = load ptr, ptr %4, align 8, !tbaa !349
  ret ptr %5
}

; Function Attrs: mustprogress nounwind uwtable
define linkonce_odr dso_local void @_ZN6spdlog7details12padding_infoC2Ev(ptr noundef nonnull align 8 dereferenceable(14) %0) unnamed_addr #0 comdat align 2 {
  %2 = alloca ptr, align 8
  store ptr %0, ptr %2, align 8, !tbaa !309
  %3 = load ptr, ptr %2, align 8
  %4 = getelementptr inbounds nuw %"struct.spdlog::details::padding_info", ptr %3, i32 0, i32 0
  store i64 0, ptr %4, align 8, !tbaa !311
  %5 = getelementptr inbounds nuw %"struct.spdlog::details::padding_info", ptr %3, i32 0, i32 1
  store i32 0, ptr %5, align 8, !tbaa !313
  %6 = getelementptr inbounds nuw %"struct.spdlog::details::padding_info", ptr %3, i32 0, i32 2
  store i8 0, ptr %6, align 4, !tbaa !314
  %7 = getelementptr inbounds nuw %"struct.spdlog::details::padding_info", ptr %3, i32 0, i32 3
  store i8 0, ptr %7, align 1, !tbaa !315
  ret void
}

; Function Attrs: inlinehint mustprogress nounwind uwtable
define linkonce_odr dso_local noundef zeroext i1 @_ZN9__gnu_cxxeqIPKcNSt7__cxx1112basic_stringIcSt11char_traitsIcESaIcEEEEEbRKNS_17__normal_iteratorIT_T0_EESE_(ptr noundef nonnull align 8 dereferenceable(8) %0, ptr noundef nonnull align 8 dereferenceable(8) %1) #3 comdat {
  %3 = alloca ptr, align 8
  %4 = alloca ptr, align 8
  store ptr %0, ptr %3, align 8, !tbaa !346
  store ptr %1, ptr %4, align 8, !tbaa !346
  %5 = load ptr, ptr %3, align 8, !tbaa !346
  %6 = call noundef nonnull align 8 dereferenceable(8) ptr @_ZNK9__gnu_cxx17__normal_iteratorIPKcNSt7__cxx1112basic_stringIcSt11char_traitsIcESaIcEEEE4baseEv(ptr noundef nonnull align 8 dereferenceable(8) %5) #13
  %7 = load ptr, ptr %6, align 8, !tbaa !8
  %8 = load ptr, ptr %4, align 8, !tbaa !346
  %9 = call noundef nonnull align 8 dereferenceable(8) ptr @_ZNK9__gnu_cxx17__normal_iteratorIPKcNSt7__cxx1112basic_stringIcSt11char_traitsIcESaIcEEEE4baseEv(ptr noundef nonnull align 8 dereferenceable(8) %8) #13
  %10 = load ptr, ptr %9, align 8, !tbaa !8
  %11 = icmp eq ptr %7, %10
  ret i1 %11
}

; Function Attrs: mustprogress uwtable
define dso_local { i64, i64 } @_ZN6spdlog17pattern_formatter15handle_padspec_ERN9__gnu_cxx17__normal_iteratorIPKcNSt7__cxx1112basic_stringIcSt11char_traitsIcESaIcEEEEESB_(ptr noundef nonnull align 8 dereferenceable(8) %0, ptr %1) #5 align 2 {
  %3 = alloca %"struct.spdlog::details::padding_info", align 8
  %4 = alloca %"class.__gnu_cxx::__normal_iterator.125", align 8
  %5 = alloca ptr, align 8
  %6 = alloca i64, align 8
  %7 = alloca i32, align 4
  %8 = alloca i32, align 4
  %9 = alloca i64, align 8
  %10 = alloca i64, align 8
  %11 = alloca i8, align 1
  %12 = getelementptr inbounds nuw %"class.__gnu_cxx::__normal_iterator.125", ptr %4, i32 0, i32 0
  store ptr %1, ptr %12, align 8
  store ptr %0, ptr %5, align 8, !tbaa !346
  call void @llvm.lifetime.start.p0(i64 8, ptr %6) #13
  store i64 64, ptr %6, align 8, !tbaa !28
  %13 = load ptr, ptr %5, align 8, !tbaa !346
  %14 = call noundef zeroext i1 @_ZN9__gnu_cxxeqIPKcNSt7__cxx1112basic_stringIcSt11char_traitsIcESaIcEEEEEbRKNS_17__normal_iteratorIT_T0_EESE_(ptr noundef nonnull align 8 dereferenceable(8) %13, ptr noundef nonnull align 8 dereferenceable(8) %4) #13
  br i1 %14, label %15, label %16

15:                                               ; preds = %2
  call void @llvm.memset.p0.i64(ptr align 8 %3, i8 0, i64 16, i1 false)
  call void @_ZN6spdlog7details12padding_infoC2Ev(ptr noundef nonnull align 8 dereferenceable(14) %3) #13
  store i32 1, ptr %7, align 4
  br label %92

16:                                               ; preds = %2
  call void @llvm.lifetime.start.p0(i64 4, ptr %8) #13
  %17 = load ptr, ptr %5, align 8, !tbaa !346
  %18 = call noundef nonnull align 1 dereferenceable(1) ptr @_ZNK9__gnu_cxx17__normal_iteratorIPKcNSt7__cxx1112basic_stringIcSt11char_traitsIcESaIcEEEEdeEv(ptr noundef nonnull align 8 dereferenceable(8) %17) #13
  %19 = load i8, ptr %18, align 1, !tbaa !21
  %20 = sext i8 %19 to i32
  switch i32 %20, label %27 [
    i32 45, label %21
    i32 61, label %24
  ]

21:                                               ; preds = %16
  store i32 1, ptr %8, align 4, !tbaa !303
  %22 = load ptr, ptr %5, align 8, !tbaa !346
  %23 = call noundef nonnull align 8 dereferenceable(8) ptr @_ZN9__gnu_cxx17__normal_iteratorIPKcNSt7__cxx1112basic_stringIcSt11char_traitsIcESaIcEEEEppEv(ptr noundef nonnull align 8 dereferenceable(8) %22) #13
  br label %28

24:                                               ; preds = %16
  store i32 2, ptr %8, align 4, !tbaa !303
  %25 = load ptr, ptr %5, align 8, !tbaa !346
  %26 = call noundef nonnull align 8 dereferenceable(8) ptr @_ZN9__gnu_cxx17__normal_iteratorIPKcNSt7__cxx1112basic_stringIcSt11char_traitsIcESaIcEEEEppEv(ptr noundef nonnull align 8 dereferenceable(8) %25) #13
  br label %28

27:                                               ; preds = %16
  store i32 0, ptr %8, align 4, !tbaa !303
  br label %28

28:                                               ; preds = %27, %24, %21
  %29 = load ptr, ptr %5, align 8, !tbaa !346
  %30 = call noundef zeroext i1 @_ZN9__gnu_cxxeqIPKcNSt7__cxx1112basic_stringIcSt11char_traitsIcESaIcEEEEEbRKNS_17__normal_iteratorIT_T0_EESE_(ptr noundef nonnull align 8 dereferenceable(8) %29, ptr noundef nonnull align 8 dereferenceable(8) %4) #13
  br i1 %30, label %38, label %31

31:                                               ; preds = %28
  %32 = load ptr, ptr %5, align 8, !tbaa !346
  %33 = call noundef nonnull align 1 dereferenceable(1) ptr @_ZNK9__gnu_cxx17__normal_iteratorIPKcNSt7__cxx1112basic_stringIcSt11char_traitsIcESaIcEEEEdeEv(ptr noundef nonnull align 8 dereferenceable(8) %32) #13
  %34 = load i8, ptr %33, align 1, !tbaa !21
  %35 = zext i8 %34 to i32
  %36 = call i32 @isdigit(i32 noundef %35) #32
  %37 = icmp ne i32 %36, 0
  br i1 %37, label %39, label %38

38:                                               ; preds = %31, %28
  call void @llvm.memset.p0.i64(ptr align 8 %3, i8 0, i64 16, i1 false)
  call void @_ZN6spdlog7details12padding_infoC2Ev(ptr noundef nonnull align 8 dereferenceable(14) %3) #13
  store i32 1, ptr %7, align 4
  br label %91

39:                                               ; preds = %31
  call void @llvm.lifetime.start.p0(i64 8, ptr %9) #13
  %40 = load ptr, ptr %5, align 8, !tbaa !346
  %41 = call noundef nonnull align 1 dereferenceable(1) ptr @_ZNK9__gnu_cxx17__normal_iteratorIPKcNSt7__cxx1112basic_stringIcSt11char_traitsIcESaIcEEEEdeEv(ptr noundef nonnull align 8 dereferenceable(8) %40) #13
  %42 = load i8, ptr %41, align 1, !tbaa !21
  %43 = sext i8 %42 to i64
  %44 = sub i64 %43, 48
  store i64 %44, ptr %9, align 8, !tbaa !28
  %45 = load ptr, ptr %5, align 8, !tbaa !346
  %46 = call noundef nonnull align 8 dereferenceable(8) ptr @_ZN9__gnu_cxx17__normal_iteratorIPKcNSt7__cxx1112basic_stringIcSt11char_traitsIcESaIcEEEEppEv(ptr noundef nonnull align 8 dereferenceable(8) %45) #13
  br label %47

47:                                               ; preds = %69, %39
  %48 = load ptr, ptr %5, align 8, !tbaa !346
  %49 = call noundef zeroext i1 @_ZN9__gnu_cxxneIPKcNSt7__cxx1112basic_stringIcSt11char_traitsIcESaIcEEEEEbRKNS_17__normal_iteratorIT_T0_EESE_(ptr noundef nonnull align 8 dereferenceable(8) %48, ptr noundef nonnull align 8 dereferenceable(8) %4) #13
  br i1 %49, label %50, label %57

50:                                               ; preds = %47
  %51 = load ptr, ptr %5, align 8, !tbaa !346
  %52 = call noundef nonnull align 1 dereferenceable(1) ptr @_ZNK9__gnu_cxx17__normal_iteratorIPKcNSt7__cxx1112basic_stringIcSt11char_traitsIcESaIcEEEEdeEv(ptr noundef nonnull align 8 dereferenceable(8) %51) #13
  %53 = load i8, ptr %52, align 1, !tbaa !21
  %54 = zext i8 %53 to i32
  %55 = call i32 @isdigit(i32 noundef %54) #32
  %56 = icmp ne i32 %55, 0
  br label %57

57:                                               ; preds = %50, %47
  %58 = phi i1 [ false, %47 ], [ %56, %50 ]
  br i1 %58, label %59, label %72

59:                                               ; preds = %57
  call void @llvm.lifetime.start.p0(i64 8, ptr %10) #13
  %60 = load ptr, ptr %5, align 8, !tbaa !346
  %61 = call noundef nonnull align 1 dereferenceable(1) ptr @_ZNK9__gnu_cxx17__normal_iteratorIPKcNSt7__cxx1112basic_stringIcSt11char_traitsIcESaIcEEEEdeEv(ptr noundef nonnull align 8 dereferenceable(8) %60) #13
  %62 = load i8, ptr %61, align 1, !tbaa !21
  %63 = sext i8 %62 to i64
  %64 = sub i64 %63, 48
  store i64 %64, ptr %10, align 8, !tbaa !28
  %65 = load i64, ptr %9, align 8, !tbaa !28
  %66 = mul i64 %65, 10
  %67 = load i64, ptr %10, align 8, !tbaa !28
  %68 = add i64 %66, %67
  store i64 %68, ptr %9, align 8, !tbaa !28
  call void @llvm.lifetime.end.p0(i64 8, ptr %10) #13
  br label %69

69:                                               ; preds = %59
  %70 = load ptr, ptr %5, align 8, !tbaa !346
  %71 = call noundef nonnull align 8 dereferenceable(8) ptr @_ZN9__gnu_cxx17__normal_iteratorIPKcNSt7__cxx1112basic_stringIcSt11char_traitsIcESaIcEEEEppEv(ptr noundef nonnull align 8 dereferenceable(8) %70) #13
  br label %47, !llvm.loop !348

72:                                               ; preds = %57
  call void @llvm.lifetime.start.p0(i64 1, ptr %11) #13
  %73 = load ptr, ptr %5, align 8, !tbaa !346
  %74 = call noundef zeroext i1 @_ZN9__gnu_cxxneIPKcNSt7__cxx1112basic_stringIcSt11char_traitsIcESaIcEEEEEbRKNS_17__normal_iteratorIT_T0_EESE_(ptr noundef nonnull align 8 dereferenceable(8) %73, ptr noundef nonnull align 8 dereferenceable(8) %4) #13
  br i1 %74, label %75, label %84

75:                                               ; preds = %72
  %76 = load ptr, ptr %5, align 8, !tbaa !346
  %77 = call noundef nonnull align 1 dereferenceable(1) ptr @_ZNK9__gnu_cxx17__normal_iteratorIPKcNSt7__cxx1112basic_stringIcSt11char_traitsIcESaIcEEEEdeEv(ptr noundef nonnull align 8 dereferenceable(8) %76) #13
  %78 = load i8, ptr %77, align 1, !tbaa !21
  %79 = sext i8 %78 to i32
  %80 = icmp eq i32 %79, 33
  br i1 %80, label %81, label %84

81:                                               ; preds = %75
  store i8 1, ptr %11, align 1, !tbaa !36
  %82 = load ptr, ptr %5, align 8, !tbaa !346
  %83 = call noundef nonnull align 8 dereferenceable(8) ptr @_ZN9__gnu_cxx17__normal_iteratorIPKcNSt7__cxx1112basic_stringIcSt11char_traitsIcESaIcEEEEppEv(ptr noundef nonnull align 8 dereferenceable(8) %82) #13
  br label %85

84:                                               ; preds = %75, %72
  store i8 0, ptr %11, align 1, !tbaa !36
  br label %85

85:                                               ; preds = %84, %81
  %86 = call noundef nonnull align 8 dereferenceable(8) ptr @_ZSt3minImERKT_S2_S2_(ptr noundef nonnull align 8 dereferenceable(8) %9, ptr noundef nonnull align 8 dereferenceable(8) %6)
  %87 = load i64, ptr %86, align 8, !tbaa !28
  %88 = load i32, ptr %8, align 4, !tbaa !303
  %89 = load i8, ptr %11, align 1, !tbaa !36, !range !38, !noundef !39
  %90 = trunc i8 %89 to i1
  call void @_ZN6spdlog7details12padding_infoC2EmNS1_8pad_sideEb(ptr noundef nonnull align 8 dereferenceable(14) %3, i64 noundef %87, i32 noundef %88, i1 noundef zeroext %90)
  store i32 1, ptr %7, align 4
  call void @llvm.lifetime.end.p0(i64 1, ptr %11) #13
  call void @llvm.lifetime.end.p0(i64 8, ptr %9) #13
  br label %91

91:                                               ; preds = %85, %38
  call void @llvm.lifetime.end.p0(i64 4, ptr %8) #13
  br label %92

92:                                               ; preds = %91, %15
  call void @llvm.lifetime.end.p0(i64 8, ptr %6) #13
  %93 = load { i64, i64 }, ptr %3, align 8
  ret { i64, i64 } %93
}