; Function Attrs: mustprogress nofree norecurse nosync nounwind memory(read, argmem: readwrite, inaccessiblemem: none) uwtable
define dso_local { i64, i64 } @_ZN6spdlog17pattern_formatter15handle_padspec_ERN9__gnu_cxx17__normal_iteratorIPKcNSt7__cxx1112basic_stringIcSt11char_traitsIcESaIcEEEEESB_(ptr noundef nonnull align 8 captures(none) dereferenceable(8) %0, ptr readnone %1) local_unnamed_addr #29 align 2 {
  %3 = load ptr, ptr %0, align 8, !tbaa !4
  %4 = icmp eq ptr %3, %1
  br i1 %4, label %30, label %5

5:                                                ; preds = %2
  %6 = load i8, ptr %3, align 1, !tbaa !17
  switch i8 %6, label %9 [
    i8 45, label %.sink.split
    i8 61, label %7
  ]

7:                                                ; preds = %5
  br label %.sink.split

.sink.split:                                      ; preds = %5, %7
  %.017.ph = phi i64 [ 1099511627778, %7 ], [ 1099511627777, %5 ]
  %8 = getelementptr inbounds nuw i8, ptr %3, i64 1
  store ptr %8, ptr %0, align 8, !tbaa !290
  br label %9

9:                                                ; preds = %.sink.split, %5
  %10 = phi ptr [ %3, %5 ], [ %8, %.sink.split ]
  %.017 = phi i64 [ 1099511627776, %5 ], [ %.017.ph, %.sink.split ]
  %11 = icmp eq ptr %10, %1
  br i1 %11, label %30, label %12

12:                                               ; preds = %9
  %13 = load i8, ptr %10, align 1, !tbaa !17
  %14 = add i8 %13, -48
  %isdigit = icmp ult i8 %14, 10
  br i1 %isdigit, label %15, label %30

15:                                               ; preds = %12
  %16 = zext nneg i8 %13 to i64
  %17 = add nsw i64 %16, -48
  %storemerge41 = getelementptr inbounds nuw i8, ptr %10, i64 1
  store ptr %storemerge41, ptr %0, align 8, !tbaa !290
  %.not42 = icmp eq ptr %storemerge41, %1
  br i1 %.not42, label %.critedge, label %.lr.ph.preheader

.lr.ph.preheader:                                 ; preds = %15
  %18 = load i8, ptr %storemerge41, align 1, !tbaa !17
  %19 = add i8 %18, -48
  %isdigit1857 = icmp ult i8 %19, 10
  br i1 %isdigit1857, label %.lr.ph60, label %.lr.ph._crit_edge

.lr.ph:                                           ; preds = %.lr.ph60
  %20 = load i8, ptr %storemerge, align 1, !tbaa !17
  %21 = add i8 %20, -48
  %isdigit18 = icmp ult i8 %21, 10
  br i1 %isdigit18, label %.lr.ph60, label %.lr.ph._crit_edge, !llvm.loop !248

.lr.ph60:                                         ; preds = %.lr.ph.preheader, %.lr.ph
  %22 = phi i8 [ %20, %.lr.ph ], [ %18, %.lr.ph.preheader ]
  %.0364459 = phi i64 [ %26, %.lr.ph ], [ %17, %.lr.ph.preheader ]
  %storemerge4558 = phi ptr [ %storemerge, %.lr.ph ], [ %storemerge41, %.lr.ph.preheader ]
  %23 = zext nneg i8 %22 to i64
  %24 = mul i64 %.0364459, 10
  %25 = add i64 %24, -48
  %26 = add i64 %25, %23
  %storemerge = getelementptr inbounds nuw i8, ptr %storemerge4558, i64 1
  store ptr %storemerge, ptr %0, align 8, !tbaa !290
  %.not = icmp eq ptr %storemerge, %1
  br i1 %.not, label %.critedge, label %.lr.ph, !llvm.loop !248

.lr.ph._crit_edge:                                ; preds = %.lr.ph, %.lr.ph.preheader
  %.03644.lcssa = phi i64 [ %17, %.lr.ph.preheader ], [ %26, %.lr.ph ]
  %.pn43.lcssa = phi ptr [ %10, %.lr.ph.preheader ], [ %storemerge4558, %.lr.ph ]
  %.lcssa = phi i8 [ %18, %.lr.ph.preheader ], [ %20, %.lr.ph ]
  %27 = icmp eq i8 %.lcssa, 33
  br i1 %27, label %28, label %.critedge

28:                                               ; preds = %.lr.ph._crit_edge
  %29 = getelementptr inbounds nuw i8, ptr %.pn43.lcssa, i64 2
  store ptr %29, ptr %0, align 8, !tbaa !290
  br label %.critedge

.critedge:                                        ; preds = %.lr.ph60, %15, %.lr.ph._crit_edge, %28
  %.03639 = phi i64 [ %.03644.lcssa, %28 ], [ %.03644.lcssa, %.lr.ph._crit_edge ], [ %17, %15 ], [ %26, %.lr.ph60 ]
  %.0 = phi i64 [ 4294967296, %28 ], [ 0, %.lr.ph._crit_edge ], [ 0, %15 ], [ 0, %.lr.ph60 ]
  %.sroa.speculated = tail call i64 @llvm.umin.i64(i64 %.03639, i64 64)
  %.sroa.6.13.insert.insert = or disjoint i64 %.017, %.0
  br label %30

30:                                               ; preds = %9, %12, %2, %.critedge
  %.sroa.6.0 = phi i64 [ %.sroa.6.13.insert.insert, %.critedge ], [ 0, %2 ], [ 0, %12 ], [ 0, %9 ]
  %.sroa.027.0 = phi i64 [ %.sroa.speculated, %.critedge ], [ 0, %2 ], [ 0, %12 ], [ 0, %9 ]
  %.fca.0.insert = insertvalue { i64, i64 } poison, i64 %.sroa.027.0, 0
  %.fca.1.insert = insertvalue { i64, i64 } %.fca.0.insert, i64 %.sroa.6.0, 1
  ret { i64, i64 } %.fca.1.insert
}